CCS PCM C Compiler, Version 5.078, 43599               08-Nov-18 17:54

               Filename:   E:\bai tap vdk\4_Button\bài2\main2.lst

               ROM used:   91 words (1%)
                           Largest free fragment is 2048
               RAM used:   8 (2%) at main() level
                           8 (2%) worst case
               Stack used: 0 locations
               Stack size: 8

*
0000:  MOVLW  00
0001:  MOVWF  0A
0002:  GOTO   01A
0003:  NOP
.................... #define S1    PIN_D0 
.................... #define LED1  PIN_D3 
....................  
.................... #include <main2.h> 
.................... #include <16F887.h> 
.................... //////////// Standard Header file for the PIC16F887 device //////////////// 
.................... /////////////////////////////////////////////////////////////////////////// 
.................... ////        (C) Copyright 1996, 2014 Custom Computer Services          //// 
.................... //// This source code may only be used by licensed users of the CCS C  //// 
.................... //// compiler.  This source code may only be distributed to other      //// 
.................... //// licensed users of the CCS C compiler.  No other use, reproduction //// 
.................... //// or distribution is permitted without written permission.          //// 
.................... //// Derivative programs created using this software in object code    //// 
.................... //// form are not restricted in any way.                               //// 
.................... /////////////////////////////////////////////////////////////////////////// 
.................... #device PIC16F887 
....................  
.................... #list 
....................  
.................... #device ADC=10 
.................... #use delay(crystal=20000000) 
0004:  MOVLW  21
0005:  MOVWF  04
0006:  BCF    03.7
0007:  MOVF   00,W
0008:  BTFSC  03.2
0009:  GOTO   017
000A:  MOVLW  06
000B:  MOVWF  78
000C:  CLRF   77
000D:  DECFSZ 77,F
000E:  GOTO   00D
000F:  DECFSZ 78,F
0010:  GOTO   00C
0011:  MOVLW  7B
0012:  MOVWF  77
0013:  DECFSZ 77,F
0014:  GOTO   013
0015:  DECFSZ 00,F
0016:  GOTO   00A
0017:  BCF    0A.3
0018:  BCF    0A.4
0019:  GOTO   053 (RETURN)
....................  
....................  
....................  
.................... char S1_state=0; 
....................  
.................... void main() 
001A:  MOVF   03,W
001B:  ANDLW  1F
001C:  MOVWF  03
001D:  CLRF   20
001E:  BSF    03.5
001F:  BSF    03.6
0020:  MOVF   09,W
0021:  ANDLW  C0
0022:  MOVWF  09
0023:  BCF    03.6
0024:  BCF    1F.4
0025:  BCF    1F.5
0026:  MOVLW  00
0027:  BSF    03.6
0028:  MOVWF  08
0029:  BCF    03.5
002A:  CLRF   07
002B:  CLRF   08
002C:  CLRF   09
002D:  BCF    03.7
.................... { 
....................    set_tris_d(0b11110111); 
002E:  MOVLW  F7
002F:  BSF    03.5
0030:  BCF    03.6
0031:  MOVWF  08
....................    output_bit(LED1,0); 
0032:  BCF    03.5
0033:  BCF    08.3
0034:  BSF    03.5
0035:  BCF    08.3
....................    while(TRUE) 
....................    { 
....................       if (input(S1)==1)  
0036:  BSF    08.0
0037:  BCF    03.5
0038:  BTFSS  08.0
0039:  GOTO   03C
....................          S1_state=1; 
003A:  MOVLW  01
003B:  MOVWF  20
....................       if ((input(S1)==0)&(S1_state==1))  
003C:  BSF    03.5
003D:  BSF    08.0
003E:  MOVLW  00
003F:  BCF    03.5
0040:  BTFSS  08.0
0041:  MOVLW  01
0042:  MOVWF  22
0043:  DECFSZ 20,W
0044:  GOTO   046
0045:  GOTO   048
0046:  MOVLW  00
0047:  GOTO   049
0048:  MOVLW  01
0049:  ANDWF  22,W
004A:  BTFSC  03.2
004B:  GOTO   058
....................          { 
....................             output_bit(LED1,1); 
004C:  BSF    08.3
004D:  BSF    03.5
004E:  BCF    08.3
....................             delay_ms(100); 
004F:  MOVLW  64
0050:  BCF    03.5
0051:  MOVWF  21
0052:  GOTO   004
....................             output_bit(LED1,0); 
0053:  BCF    08.3
0054:  BSF    03.5
0055:  BCF    08.3
....................             S1_state=0; 
0056:  BCF    03.5
0057:  CLRF   20
....................          } 
0058:  BSF    03.5
0059:  GOTO   036
....................        
....................       //TODO: User Code 
....................    } 
....................  
.................... } 
....................  
005A:  SLEEP

Configuration Fuses:
   Word  1: 2FE2   HS NOWDT PUT MCLR NOPROTECT NOCPD BROWNOUT IESO FCMEN NOLVP NODEBUG
   Word  2: 3FFF   BORV40 NOWRT
